; Function Attrs: mustprogress nounwind uwtable
define internal fastcc void @_ZNSt10_HashtableISt17basic_string_viewIcSt11char_traitsIcEESt4pairIKS3_St8functionIFNSt7__cxx1112basic_stringIcS2_SaIcEEEP28cmGeneratorExpressionContextPK26GeneratorExpressionContentRN12_GLOBAL__N_15RangeISt6vectorISA_SaISA_EEEEEEESaISP_ENSt8__detail10_Select1stESt8equal_toIS3_ESt4hashIS3_ENSR_18_Mod_range_hashingENSR_20_Default_ranged_hashENSR_20_Prime_rehash_policyENSR_17_Hashtable_traitsILb1ELb0ELb1EEEE12_Scoped_nodeD2Ev(ptr %.8.val) unnamed_addr #4 align 2 personality ptr @__gxx_personality_v0 {
  %.not = icmp eq ptr %.8.val, null
  br i1 %.not, label %10, label %1

1:                                                ; preds = %0
  %2 = getelementptr inbounds i8, ptr %.8.val, i64 40
  %3 = load ptr, ptr %2, align 8
  %.not.i.i.i.i.i.i = icmp eq ptr %3, null
  br i1 %.not.i.i.i.i.i.i, label %_ZNSt8__detail16_Hashtable_allocISaINS_10_Hash_nodeISt4pairIKSt17basic_string_viewIcSt11char_traitsIcEESt8functionIFNSt7__cxx1112basic_stringIcS5_SaIcEEEP28cmGeneratorExpressionContextPK26GeneratorExpressionContentRN12_GLOBAL__N_15RangeISt6vectorISC_SaISC_EEEEEEELb1EEEEE18_M_deallocate_nodeEPSS_.exit, label %4

4:                                                ; preds = %1
  %5 = getelementptr inbounds i8, ptr %.8.val, i64 24
  %6 = invoke noundef zeroext i1 %3(ptr noundef nonnull align 8 dereferenceable(16) %5, ptr noundef nonnull align 8 dereferenceable(16) %5, i32 noundef 3)
          to label %_ZNSt8__detail16_Hashtable_allocISaINS_10_Hash_nodeISt4pairIKSt17basic_string_viewIcSt11char_traitsIcEESt8functionIFNSt7__cxx1112basic_stringIcS5_SaIcEEEP28cmGeneratorExpressionContextPK26GeneratorExpressionContentRN12_GLOBAL__N_15RangeISt6vectorISC_SaISC_EEEEEEELb1EEEEE18_M_deallocate_nodeEPSS_.exit unwind label %7

7:                                                ; preds = %4
  %8 = landingpad { ptr, i32 }
          catch ptr null
  %9 = extractvalue { ptr, i32 } %8, 0
  tail call void @__clang_call_terminate(ptr %9) #25
  unreachable

_ZNSt8__detail16_Hashtable_allocISaINS_10_Hash_nodeISt4pairIKSt17basic_string_viewIcSt11char_traitsIcEESt8functionIFNSt7__cxx1112basic_stringIcS5_SaIcEEEP28cmGeneratorExpressionContextPK26GeneratorExpressionContentRN12_GLOBAL__N_15RangeISt6vectorISC_SaISC_EEEEEEELb1EEEEE18_M_deallocate_nodeEPSS_.exit: ; preds = %1, %4
  tail call void @_ZdlPv(ptr noundef nonnull %.8.val) #24
  br label %10

10:                                               ; preds = %_ZNSt8__detail16_Hashtable_allocISaINS_10_Hash_nodeISt4pairIKSt17basic_string_viewIcSt11char_traitsIcEESt8functionIFNSt7__cxx1112basic_stringIcS5_SaIcEEEP28cmGeneratorExpressionContextPK26GeneratorExpressionContentRN12_GLOBAL__N_15RangeISt6vectorISC_SaISC_EEEEEEELb1EEEEE18_M_deallocate_nodeEPSS_.exit, %0
  ret void
}